target datalayout = "e-m:e-p270:32:32-p271:32:32-p272:64:64-i64:64-i128:128-f80:128-n8:16:32:64-S128"
target triple = "x86_64-pc-linux-gnu"

@hf_sysact_pi_ifnum = internal global i32 0, align 4
@hf_sysact_unused_buffer = internal global i32 0, align 4
@ett_dcom_propsoutput = internal global i32 0, align 4
@.str.160 = private unnamed_addr constant [16 x i8] c"InterfaceIdsPtr\00", align 1
@.str.177 = private unnamed_addr constant [17 x i8] c"PropertiesOutput\00", align 1
@.str.178 = private unnamed_addr constant [16 x i8] c"ReturnValuesPtr\00", align 1
@.str.179 = private unnamed_addr constant [17 x i8] c"InterfacePtrsPtr\00", align 1

; Function Attrs: null_pointer_is_valid sspstrong uwtable
define internal i32 @dissect_dcom_PropsOutInfo(ptr noundef %0, i32 noundef %1, ptr noundef %2, ptr noundef %3, ptr noundef %4, ptr noundef %5, i32 noundef %6) #0 {
  %8 = alloca ptr, align 8
  %9 = alloca i32, align 4
  %10 = alloca ptr, align 8
  %11 = alloca ptr, align 8
  %12 = alloca ptr, align 8
  %13 = alloca ptr, align 8
  %14 = alloca i32, align 4
  %15 = alloca ptr, align 8
  %16 = alloca i32, align 4
  %17 = alloca i32, align 4
  store ptr %0, ptr %8, align 8
  store i32 %1, ptr %9, align 4
  store ptr %2, ptr %10, align 8
  store ptr %3, ptr %11, align 8
  store ptr %4, ptr %12, align 8
  store ptr %5, ptr %13, align 8
  store i32 %6, ptr %14, align 4
  call void @llvm.lifetime.start.p0(i64 8, ptr %15) #5
  call void @llvm.lifetime.start.p0(i64 4, ptr %16) #5
  call void @llvm.lifetime.start.p0(i64 4, ptr %17) #5
  %18 = load i32, ptr %9, align 4
  store i32 %18, ptr %16, align 4
  %19 = load i32, ptr %14, align 4
  %20 = icmp sle i32 %19, 0
  br i1 %20, label %21, label %22

21:                                               ; preds = %7
  store i32 -1, ptr %14, align 4
  br label %22

22:                                               ; preds = %21, %7
  %23 = load ptr, ptr %11, align 8
  %24 = load ptr, ptr %8, align 8
  %25 = load i32, ptr %9, align 4
  %26 = load i32, ptr %14, align 4
  %27 = load i32, ptr @ett_dcom_propsoutput, align 4
  %28 = call ptr @proto_tree_add_subtree(ptr noundef %23, ptr noundef %24, i32 noundef %25, i32 noundef %26, i32 noundef %27, ptr noundef null, ptr noundef @.str.177)
  store ptr %28, ptr %15, align 8
  %29 = load ptr, ptr %8, align 8
  %30 = load i32, ptr %9, align 4
  %31 = load ptr, ptr %10, align 8
  %32 = load ptr, ptr %15, align 8
  %33 = load ptr, ptr %12, align 8
  %34 = load ptr, ptr %13, align 8
  %35 = call i32 @dissect_TypeSzCommPrivHdr(ptr noundef %29, i32 noundef %30, ptr noundef %31, ptr noundef %32, ptr noundef %33, ptr noundef %34)
  store i32 %35, ptr %9, align 4
  %36 = load ptr, ptr %8, align 8
  %37 = load i32, ptr %9, align 4
  %38 = load ptr, ptr %10, align 8
  %39 = load ptr, ptr %15, align 8
  %40 = load ptr, ptr %12, align 8
  %41 = load ptr, ptr %13, align 8
  %42 = load i32, ptr @hf_sysact_pi_ifnum, align 4
  %43 = call i32 @dissect_ndr_uint32(ptr noundef %36, i32 noundef %37, ptr noundef %38, ptr noundef %39, ptr noundef %40, ptr noundef %41, i32 noundef %42, ptr noundef null)
  store i32 %43, ptr %9, align 4
  %44 = load ptr, ptr %8, align 8
  %45 = load i32, ptr %9, align 4
  %46 = load ptr, ptr %10, align 8
  %47 = load ptr, ptr %15, align 8
  %48 = load ptr, ptr %12, align 8
  %49 = load ptr, ptr %13, align 8
  %50 = call i32 @dissect_ndr_embedded_pointer(ptr noundef %44, i32 noundef %45, ptr noundef %46, ptr noundef %47, ptr noundef %48, ptr noundef %49, ptr noundef @dissect_dcom_IfIds, i32 noundef 2, ptr noundef @.str.160, i32 noundef -1)
  store i32 %50, ptr %9, align 4
  %51 = load ptr, ptr %8, align 8
  %52 = load i32, ptr %9, align 4
  %53 = load ptr, ptr %10, align 8
  %54 = load ptr, ptr %15, align 8
  %55 = load ptr, ptr %12, align 8
  %56 = load ptr, ptr %13, align 8
  %57 = call i32 @dissect_ndr_embedded_pointer(ptr noundef %51, i32 noundef %52, ptr noundef %53, ptr noundef %54, ptr noundef %55, ptr noundef %56, ptr noundef @dissect_dcom_ReturnVals, i32 noundef 2, ptr noundef @.str.178, i32 noundef -1)
  store i32 %57, ptr %9, align 4
  %58 = load ptr, ptr %8, align 8
  %59 = load i32, ptr %9, align 4
  %60 = load ptr, ptr %10, align 8
  %61 = load ptr, ptr %15, align 8
  %62 = load ptr, ptr %12, align 8
  %63 = load ptr, ptr %13, align 8
  %64 = call i32 @dissect_ndr_embedded_pointer(ptr noundef %58, i32 noundef %59, ptr noundef %60, ptr noundef %61, ptr noundef %62, ptr noundef %63, ptr noundef @dissect_dcom_InterfData, i32 noundef 2, ptr noundef @.str.179, i32 noundef -1)
  store i32 %64, ptr %9, align 4
  %65 = load ptr, ptr %10, align 8
  %66 = load ptr, ptr %8, align 8
  %67 = load i32, ptr %9, align 4
  %68 = load ptr, ptr %12, align 8
  %69 = load ptr, ptr %13, align 8
  %70 = call i32 @dissect_deferred_pointers(ptr noundef %65, ptr noundef %66, i32 noundef %67, ptr noundef %68, ptr noundef %69)
  store i32 %70, ptr %9, align 4
  %71 = load i32, ptr %9, align 4
  %72 = load i32, ptr %16, align 4
  %73 = sub i32 %71, %72
  store i32 %73, ptr %17, align 4
  %74 = load i32, ptr %14, align 4
  %75 = load i32, ptr %17, align 4
  %76 = icmp slt i32 %74, %75
  br i1 %76, label %77, label %79

77:                                               ; preds = %22
  %78 = load i32, ptr %17, align 4
  store i32 %78, ptr %14, align 4
  br label %93

79:                                               ; preds = %22
  %80 = load i32, ptr %14, align 4
  %81 = load i32, ptr %17, align 4
  %82 = icmp sgt i32 %80, %81
  br i1 %82, label %83, label %92

83:                                               ; preds = %79
  %84 = load ptr, ptr %15, align 8
  %85 = load i32, ptr @hf_sysact_unused_buffer, align 4
  %86 = load ptr, ptr %8, align 8
  %87 = load i32, ptr %9, align 4
  %88 = load i32, ptr %14, align 4
  %89 = load i32, ptr %17, align 4
  %90 = sub i32 %88, %89
  %91 = call ptr @proto_tree_add_item(ptr noundef %84, i32 noundef %85, ptr noundef %86, i32 noundef %87, i32 noundef %90, i32 noundef 0)
  br label %92

92:                                               ; preds = %83, %79
  br label %93

93:                                               ; preds = %92, %77
  %94 = load i32, ptr %16, align 4
  %95 = load i32, ptr %14, align 4
  %96 = add i32 %94, %95
  store i32 %96, ptr %9, align 4
  %97 = load i32, ptr %9, align 4
  call void @llvm.lifetime.end.p0(i64 4, ptr %17) #5
  call void @llvm.lifetime.end.p0(i64 4, ptr %16) #5
  call void @llvm.lifetime.end.p0(i64 8, ptr %15) #5
  ret i32 %97
}