; Function Attrs: null_pointer_is_valid sspstrong uwtable
define internal i32 @dissect_dcom_PropsOutInfo(ptr noundef %0, i32 noundef %1, ptr noundef %2, ptr noundef %3, ptr noundef %4, ptr noundef %5, i32 noundef %6) #0 {
  %8 = icmp slt i32 %6, 1
  %spec.store.select = select i1 %8, i32 -1, i32 %6
  %9 = load i32, ptr @ett_dcom_propsoutput, align 4
  %10 = tail call ptr @proto_tree_add_subtree(ptr noundef %3, ptr noundef %0, i32 noundef %1, i32 noundef %spec.store.select, i32 noundef %9, ptr noundef null, ptr noundef nonnull @.str.177)
  %11 = tail call fastcc i32 @dissect_TypeSzCommPrivHdr(ptr noundef %0, i32 noundef %1, ptr noundef %2, ptr noundef %10, ptr noundef %4, ptr noundef %5)
  %12 = load i32, ptr @hf_sysact_pi_ifnum, align 4
  %13 = tail call i32 @dissect_ndr_uint32(ptr noundef %0, i32 noundef %11, ptr noundef %2, ptr noundef %10, ptr noundef %4, ptr noundef %5, i32 noundef %12, ptr noundef null)
  %14 = tail call i32 @dissect_ndr_embedded_pointer(ptr noundef %0, i32 noundef %13, ptr noundef %2, ptr noundef %10, ptr noundef %4, ptr noundef %5, ptr noundef nonnull @dissect_dcom_IfIds, i32 noundef 2, ptr noundef nonnull @.str.160, i32 noundef -1)
  %15 = tail call i32 @dissect_ndr_embedded_pointer(ptr noundef %0, i32 noundef %14, ptr noundef %2, ptr noundef %10, ptr noundef %4, ptr noundef %5, ptr noundef nonnull @dissect_dcom_ReturnVals, i32 noundef 2, ptr noundef nonnull @.str.178, i32 noundef -1)
  %16 = tail call i32 @dissect_ndr_embedded_pointer(ptr noundef %0, i32 noundef %15, ptr noundef %2, ptr noundef %10, ptr noundef %4, ptr noundef %5, ptr noundef nonnull @dissect_dcom_InterfData, i32 noundef 2, ptr noundef nonnull @.str.179, i32 noundef -1)
  %17 = tail call i32 @dissect_deferred_pointers(ptr noundef %2, ptr noundef %0, i32 noundef %16, ptr noundef %4, ptr noundef %5)
  %18 = sub i32 %17, %1
  %19 = icmp slt i32 %spec.store.select, %18
  br i1 %19, label %26, label %20

20:                                               ; preds = %7
  %21 = icmp sgt i32 %spec.store.select, %18
  br i1 %21, label %22, label %26

22:                                               ; preds = %20
  %23 = load i32, ptr @hf_sysact_unused_buffer, align 4
  %24 = sub i32 %spec.store.select, %18
  %25 = tail call ptr @proto_tree_add_item(ptr noundef %10, i32 noundef %23, ptr noundef %0, i32 noundef %17, i32 noundef %24, i32 noundef 0)
  br label %26

26:                                               ; preds = %7, %20, %22
  %.0 = phi i32 [ %spec.store.select, %22 ], [ %spec.store.select, %20 ], [ %18, %7 ]
  %27 = add i32 %.0, %1
  ret i32 %27
}